target datalayout = "e-m:e-p270:32:32-p271:32:32-p272:64:64-i64:64-i128:128-f80:128-n8:16:32:64-S128"
target triple = "x86_64-pc-linux-gnu"

%struct.v3_ext_method = type { i32, i32, ptr, ptr, ptr, ptr, ptr, ptr, ptr, ptr, ptr, ptr, ptr, ptr }

; Function Attrs: nounwind uwtable
define ptr @X509V3_EXT_d2i(ptr noundef %0) #0 {
  %2 = alloca ptr, align 8
  %3 = alloca ptr, align 8
  %4 = alloca ptr, align 8
  %5 = alloca ptr, align 8
  %6 = alloca ptr, align 8
  %7 = alloca i32, align 4
  %8 = alloca i32, align 4
  store ptr %0, ptr %3, align 8, !tbaa !17
  call void @llvm.lifetime.start.p0(i64 8, ptr %4) #5
  call void @llvm.lifetime.start.p0(i64 8, ptr %5) #5
  call void @llvm.lifetime.start.p0(i64 8, ptr %6) #5
  call void @llvm.lifetime.start.p0(i64 4, ptr %7) #5
  %9 = load ptr, ptr %3, align 8, !tbaa !17
  %10 = call ptr @X509V3_EXT_get(ptr noundef %9)
  store ptr %10, ptr %4, align 8, !tbaa !3
  %11 = icmp eq ptr %10, null
  br i1 %11, label %12, label %13

12:                                               ; preds = %1
  store ptr null, ptr %2, align 8
  store i32 1, ptr %8, align 4
  br label %39

13:                                               ; preds = %1
  %14 = load ptr, ptr %3, align 8, !tbaa !17
  %15 = call ptr @X509_EXTENSION_get_data(ptr noundef %14)
  store ptr %15, ptr %6, align 8, !tbaa !23
  %16 = load ptr, ptr %6, align 8, !tbaa !23
  %17 = call ptr @ASN1_STRING_get0_data(ptr noundef %16)
  store ptr %17, ptr %5, align 8, !tbaa !25
  %18 = load ptr, ptr %6, align 8, !tbaa !23
  %19 = call i32 @ASN1_STRING_length(ptr noundef %18)
  store i32 %19, ptr %7, align 4, !tbaa !16
  %20 = load ptr, ptr %4, align 8, !tbaa !3
  %21 = getelementptr inbounds nuw %struct.v3_ext_method, ptr %20, i32 0, i32 2
  %22 = load ptr, ptr %21, align 8, !tbaa !27
  %23 = icmp ne ptr %22, null
  br i1 %23, label %24, label %32

24:                                               ; preds = %13
  %25 = load i32, ptr %7, align 4, !tbaa !16
  %26 = sext i32 %25 to i64
  %27 = load ptr, ptr %4, align 8, !tbaa !3
  %28 = getelementptr inbounds nuw %struct.v3_ext_method, ptr %27, i32 0, i32 2
  %29 = load ptr, ptr %28, align 8, !tbaa !27
  %30 = call ptr %29()
  %31 = call ptr @ASN1_item_d2i(ptr noundef null, ptr noundef %5, i64 noundef %26, ptr noundef %30)
  store ptr %31, ptr %2, align 8
  store i32 1, ptr %8, align 4
  br label %39

32:                                               ; preds = %13
  %33 = load ptr, ptr %4, align 8, !tbaa !3
  %34 = getelementptr inbounds nuw %struct.v3_ext_method, ptr %33, i32 0, i32 5
  %35 = load ptr, ptr %34, align 8, !tbaa !28
  %36 = load i32, ptr %7, align 4, !tbaa !16
  %37 = sext i32 %36 to i64
  %38 = call ptr %35(ptr noundef null, ptr noundef %5, i64 noundef %37)
  store ptr %38, ptr %2, align 8
  store i32 1, ptr %8, align 4
  br label %39

39:                                               ; preds = %32, %24, %12
  call void @llvm.lifetime.end.p0(i64 4, ptr %7) #5
  call void @llvm.lifetime.end.p0(i64 8, ptr %6) #5
  call void @llvm.lifetime.end.p0(i64 8, ptr %5) #5
  call void @llvm.lifetime.end.p0(i64 8, ptr %4) #5
  %40 = load ptr, ptr %2, align 8
  ret ptr %40
}