; Function Attrs: nounwind uwtable
define ptr @X509V3_EXT_d2i(ptr noundef %0) local_unnamed_addr #0 {
  %2 = alloca ptr, align 8
  call void @llvm.lifetime.start.p0(i64 8, ptr nonnull %2) #7
  %3 = tail call ptr @X509V3_EXT_get(ptr noundef %0)
  %4 = icmp eq ptr %3, null
  br i1 %4, label %20, label %5

5:                                                ; preds = %1
  %6 = tail call ptr @X509_EXTENSION_get_data(ptr noundef %0) #7
  %7 = tail call ptr @ASN1_STRING_get0_data(ptr noundef %6) #7
  store ptr %7, ptr %2, align 8, !tbaa !19
  %8 = tail call i32 @ASN1_STRING_length(ptr noundef %6) #7
  %9 = getelementptr inbounds nuw i8, ptr %3, i64 8
  %10 = load ptr, ptr %9, align 8, !tbaa !21
  %.not = icmp eq ptr %10, null
  br i1 %.not, label %15, label %11

11:                                               ; preds = %5
  %12 = sext i32 %8 to i64
  %13 = tail call ptr %10() #7
  %14 = call ptr @ASN1_item_d2i(ptr noundef null, ptr noundef nonnull %2, i64 noundef %12, ptr noundef %13) #7
  br label %20

15:                                               ; preds = %5
  %16 = getelementptr inbounds nuw i8, ptr %3, i64 32
  %17 = load ptr, ptr %16, align 8, !tbaa !22
  %18 = sext i32 %8 to i64
  %19 = call ptr %17(ptr noundef null, ptr noundef nonnull %2, i64 noundef %18) #7
  br label %20

20:                                               ; preds = %1, %15, %11
  %.0 = phi ptr [ %14, %11 ], [ %19, %15 ], [ null, %1 ]
  call void @llvm.lifetime.end.p0(i64 8, ptr nonnull %2) #7
  ret ptr %.0
}